; Function Attrs: mustprogress uwtable
define hidden void @_ZN2cv11makeOffsetsEPiii(ptr noundef %0, i32 noundef %1, i32 noundef %2) local_unnamed_addr #0 personality ptr @__gxx_personality_v0 {
  %4 = alloca %"class.std::__cxx11::basic_string", align 8
  %5 = alloca %"class.std::allocator", align 1
  %6 = icmp eq i32 %2, 16
  %7 = icmp eq i32 %2, 12
  %8 = icmp eq i32 %2, 8
  %9 = select i1 %8, ptr @_ZZN2cv11makeOffsetsEPiiiE8offsets8, ptr null
  %10 = select i1 %7, ptr @_ZZN2cv11makeOffsetsEPiiiE9offsets12, ptr %9
  %11 = select i1 %6, ptr @_ZZN2cv11makeOffsetsEPiiiE9offsets16, ptr %10
  %12 = icmp ne ptr %0, null
  %13 = icmp ne ptr %11, null
  %or.cond = and i1 %12, %13
  br i1 %or.cond, label %.preheader30, label %15

.preheader30:                                     ; preds = %3
  %14 = icmp sgt i32 %2, 0
  br i1 %14, label %.lr.ph.preheader, label %.lr.ph33.preheader

.lr.ph.preheader:                                 ; preds = %.preheader30
  %wide.trip.count = zext nneg i32 %2 to i64
  br label %.lr.ph

15:                                               ; preds = %3
  call void @llvm.lifetime.start.p0(i64 32, ptr nonnull %4) #7
  call void @llvm.lifetime.start.p0(i64 1, ptr nonnull %5) #7
  call void @_ZNSt7__cxx1112basic_stringIcSt11char_traitsIcESaIcEEC2EPKcRKS3_(ptr noundef nonnull align 8 dereferenceable(32) %4, ptr noundef nonnull @.str, ptr noundef nonnull align 1 dereferenceable(1) %5)
  invoke void @_ZN2cv5errorEiRKNSt7__cxx1112basic_stringIcSt11char_traitsIcESaIcEEEPKcS9_i(i32 noundef -215, ptr noundef nonnull align 8 dereferenceable(32) %4, ptr noundef nonnull @__func__._ZN2cv11makeOffsetsEPiii, ptr noundef nonnull @.str.1, i32 noundef 74) #8
          to label %16 unwind label %17

16:                                               ; preds = %15
  unreachable

17:                                               ; preds = %15
  %18 = landingpad { ptr, i32 }
          cleanup
  %19 = load ptr, ptr %4, align 8, !tbaa !3
  %20 = getelementptr inbounds nuw i8, ptr %4, i64 16
  %21 = icmp eq ptr %19, %20
  br i1 %21, label %_ZNKSt7__cxx1112basic_stringIcSt11char_traitsIcESaIcEE11_M_is_localEv.exit.thread.i.i, label %_ZNKSt7__cxx1112basic_stringIcSt11char_traitsIcESaIcEE11_M_is_localEv.exit.i.i

_ZNKSt7__cxx1112basic_stringIcSt11char_traitsIcESaIcEE11_M_is_localEv.exit.thread.i.i: ; preds = %17
  %22 = getelementptr inbounds nuw i8, ptr %4, i64 8
  %23 = load i64, ptr %22, align 8, !tbaa !11
  %24 = icmp ult i64 %23, 16
  call void @llvm.assume(i1 %24)
  br label %_ZNSt7__cxx1112basic_stringIcSt11char_traitsIcESaIcEED2Ev.exit

_ZNKSt7__cxx1112basic_stringIcSt11char_traitsIcESaIcEE11_M_is_localEv.exit.i.i: ; preds = %17
  call void @_ZdlPv(ptr noundef %19) #9
  br label %_ZNSt7__cxx1112basic_stringIcSt11char_traitsIcESaIcEED2Ev.exit

_ZNSt7__cxx1112basic_stringIcSt11char_traitsIcESaIcEED2Ev.exit: ; preds = %_ZNKSt7__cxx1112basic_stringIcSt11char_traitsIcESaIcEE11_M_is_localEv.exit.i.i, %_ZNKSt7__cxx1112basic_stringIcSt11char_traitsIcESaIcEE11_M_is_localEv.exit.thread.i.i
  call void @llvm.lifetime.end.p0(i64 1, ptr nonnull %5) #7
  call void @llvm.lifetime.end.p0(i64 32, ptr nonnull %4) #7
  resume { ptr, i32 } %18

.preheader:                                       ; preds = %.lr.ph
  %25 = icmp samesign ult i32 %2, 25
  br i1 %25, label %.lr.ph33.preheader, label %._crit_edge

.lr.ph33.preheader:                               ; preds = %.preheader30, %.preheader
  %.0.lcssa41 = phi i32 [ %2, %.preheader ], [ 0, %.preheader30 ]
  %26 = zext nneg i32 %.0.lcssa41 to i64
  %27 = sext i32 %2 to i64
  br label %.lr.ph33

.lr.ph:                                           ; preds = %.lr.ph.preheader, %.lr.ph
  %indvars.iv = phi i64 [ 0, %.lr.ph.preheader ], [ %indvars.iv.next, %.lr.ph ]
  %28 = getelementptr inbounds nuw [2 x i32], ptr %11, i64 %indvars.iv
  %29 = load i32, ptr %28, align 8, !tbaa !12
  %30 = getelementptr inbounds nuw i8, ptr %28, i64 4
  %31 = load i32, ptr %30, align 4, !tbaa !12
  %32 = mul nsw i32 %31, %1
  %33 = add nsw i32 %32, %29
  %34 = getelementptr inbounds nuw i32, ptr %0, i64 %indvars.iv
  store i32 %33, ptr %34, align 4, !tbaa !12
  %indvars.iv.next = add nuw nsw i64 %indvars.iv, 1
  %exitcond.not = icmp eq i64 %indvars.iv.next, %wide.trip.count
  br i1 %exitcond.not, label %.preheader, label %.lr.ph, !llvm.loop !14

.lr.ph33:                                         ; preds = %.lr.ph33.preheader, %.lr.ph33
  %indvars.iv36 = phi i64 [ %26, %.lr.ph33.preheader ], [ %indvars.iv.next37, %.lr.ph33 ]
  %35 = sub nsw i64 %indvars.iv36, %27
  %36 = getelementptr inbounds i32, ptr %0, i64 %35
  %37 = load i32, ptr %36, align 4, !tbaa !12
  %38 = getelementptr inbounds nuw i32, ptr %0, i64 %indvars.iv36
  store i32 %37, ptr %38, align 4, !tbaa !12
  %indvars.iv.next37 = add nuw nsw i64 %indvars.iv36, 1
  %exitcond39.not = icmp eq i64 %indvars.iv.next37, 25
  br i1 %exitcond39.not, label %._crit_edge, label %.lr.ph33, !llvm.loop !16

._crit_edge:                                      ; preds = %.lr.ph33, %.preheader
  ret void
}